; Function Attrs: mustprogress nofree norecurse nosync nounwind willreturn memory(argmem: write) uwtable
define hidden void @mbedtls_ssl_pend_fatal_alert(ptr noundef writeonly captures(none) initializes((320, 322), (324, 328)) %0, i8 noundef zeroext %1, i32 noundef %2) local_unnamed_addr #11 {
  %4 = getelementptr inbounds nuw i8, ptr %0, i64 320
  store i8 1, ptr %4, align 8, !tbaa !169
  %5 = getelementptr inbounds nuw i8, ptr %0, i64 321
  store i8 %1, ptr %5, align 1, !tbaa !170
  %6 = getelementptr inbounds nuw i8, ptr %0, i64 324
  store i32 %2, ptr %6, align 4, !tbaa !171
  ret void
}